; Listing generated by Microsoft (R) Optimizing Compiler Version 19.00.23506.0 

include listing.inc

INCLUDELIB OLDNAMES

PUBLIC	??_C@_05IAIEPMAK@1?42?48?$AA@			; `string'
CONST	ENDS
;	COMDAT ??_C@_05IAIEPMAK@1?42?48?$AA@
CONST	SEGMENT
??_C@_05IAIEPMAK@1?42?48?$AA@ DB '1.2.8', 00H		; `string'
CONST	ENDS
PUBLIC	compressBound
PUBLIC	compress
PUBLIC	compress2
;	COMDAT pdata
pdata	SEGMENT
$pdata$compress DD imagerel $LN4@compress
	DD	imagerel $LN4@compress+22
	DD	imagerel $unwind$compress
pdata	ENDS
;	COMDAT pdata
pdata	SEGMENT
$pdata$compress2 DD imagerel $LN8@compress2
	DD	imagerel $LN8@compress2+80
	DD	imagerel $unwind$compress2
pdata	ENDS
;	COMDAT pdata
pdata	SEGMENT
$pdata$0$compress2 DD imagerel $LN8@compress2+80
	DD	imagerel $LN8@compress2+144
	DD	imagerel $chain$0$compress2
pdata	ENDS
;	COMDAT pdata
pdata	SEGMENT
$pdata$2$compress2 DD imagerel $LN8@compress2+144
	DD	imagerel $LN8@compress2+163
	DD	imagerel $chain$2$compress2
pdata	ENDS
;	COMDAT pdata
pdata	SEGMENT
$pdata$3$compress2 DD imagerel $LN8@compress2+163
	DD	imagerel $LN8@compress2+172
	DD	imagerel $chain$3$compress2
;	COMDAT xdata
xdata	SEGMENT
$chain$3$compress2 DD 021H
	DD	imagerel $LN8@compress2
	DD	imagerel $LN8@compress2+80
	DD	imagerel $unwind$compress2
xdata	ENDS
;	COMDAT xdata
xdata	SEGMENT
$chain$2$compress2 DQ 00012340000020021r	; 2.53146e-308
	DD	imagerel $LN8@compress2
	DD	imagerel $LN8@compress2+80
	DD	imagerel $unwind$compress2
xdata	ENDS
;	COMDAT xdata
xdata	SEGMENT
$chain$0$compress2 DQ 00012340800020821r	; 2.53147e-308
	DD	imagerel $LN8@compress2
	DD	imagerel $LN8@compress2+80
	DD	imagerel $unwind$compress2
xdata	ENDS
;	COMDAT xdata
xdata	SEGMENT
$unwind$compress2 DQ 07004f20b00020b01r		; 4.06478e+231
xdata	ENDS
;	COMDAT xdata
xdata	SEGMENT
$unwind$compress DQ 00000620400010401r		; 5.32451e-310
END
