; Listing generated by Microsoft (R) Optimizing Compiler Version 19.00.23506.0 

include listing.inc

INCLUDELIB OLDNAMES

EXTRN	longest_match:PROC
EXTRN	match_init:PROC
?my_version@?1??deflateInit2_@@9@9 DB '1.2.8', 00H	; `deflateInit2_'::`2'::my_version
	ORG $+10
configuration_table DW 00H
	DW	00H
	DW	00H
	DW	00H
	DQ	FLAT:deflate_stored
	DW	04H
	DW	04H
	DW	08H
	DW	04H
	DQ	FLAT:deflate_fast
	DW	04H
	DW	05H
	DW	010H
	DW	08H
	DQ	FLAT:deflate_fast
	DW	04H
	DW	06H
	DW	020H
	DW	020H
	DQ	FLAT:deflate_fast
	DW	04H
	DW	04H
	DW	010H
	DW	010H
	DQ	FLAT:deflate_slow
	DW	08H
	DW	010H
	DW	020H
	DW	020H
	DQ	FLAT:deflate_slow
	DW	08H
	DW	010H
	DW	080H
	DW	080H
	DQ	FLAT:deflate_slow
	DW	08H
	DW	020H
	DW	080H
	DW	0100H
	DQ	FLAT:deflate_slow
	DW	020H
	DW	080H
	DW	0102H
	DW	0400H
	DQ	FLAT:deflate_slow
	DW	020H
	DW	0102H
	DW	0102H
	DW	01000H
	DQ	FLAT:deflate_slow
PUBLIC	deflateCopy
PUBLIC	deflateBound
PUBLIC	deflateTune
PUBLIC	deflateParams
PUBLIC	deflatePrime
PUBLIC	deflatePending
PUBLIC	deflateSetHeader
PUBLIC	deflateReset
PUBLIC	deflateResetKeep
PUBLIC	deflateSetDictionary
PUBLIC	deflateInit2_
PUBLIC	deflateInit_
PUBLIC	deflateEnd
PUBLIC	deflate
;	COMDAT pdata
pdata	SEGMENT
$pdata$deflate_huff DD imagerel deflate_huff
	DD	imagerel deflate_huff+452
	DD	imagerel $unwind$deflate_huff
pdata	ENDS
;	COMDAT pdata
pdata	SEGMENT
$pdata$deflate_rle DD imagerel deflate_rle
	DD	imagerel deflate_rle+828
	DD	imagerel $unwind$deflate_rle
pdata	ENDS
;	COMDAT pdata
pdata	SEGMENT
$pdata$deflate_slow DD imagerel deflate_slow
	DD	imagerel deflate_slow+1289
	DD	imagerel $unwind$deflate_slow
pdata	ENDS
;	COMDAT pdata
pdata	SEGMENT
$pdata$deflate_fast DD imagerel deflate_fast
	DD	imagerel deflate_fast+1019
	DD	imagerel $unwind$deflate_fast
pdata	ENDS
;	COMDAT pdata
pdata	SEGMENT
$pdata$deflate_stored DD imagerel deflate_stored
	DD	imagerel deflate_stored+482
	DD	imagerel $unwind$deflate_stored
pdata	ENDS
;	COMDAT pdata
pdata	SEGMENT
$pdata$fill_window DD imagerel fill_window
	DD	imagerel fill_window+21
	DD	imagerel $unwind$fill_window
pdata	ENDS
;	COMDAT pdata
pdata	SEGMENT
$pdata$0$fill_window DD imagerel fill_window+21
	DD	imagerel fill_window+469
	DD	imagerel $chain$0$fill_window
pdata	ENDS
;	COMDAT pdata
pdata	SEGMENT
$pdata$1$fill_window DD imagerel fill_window+469
	DD	imagerel fill_window+600
	DD	imagerel $chain$1$fill_window
pdata	ENDS
;	COMDAT pdata
pdata	SEGMENT
$pdata$lm_init DD imagerel lm_init
	DD	imagerel lm_init+180
	DD	imagerel $unwind$lm_init
pdata	ENDS
;	COMDAT pdata
pdata	SEGMENT
$pdata$read_buf DD imagerel read_buf
	DD	imagerel read_buf+160
	DD	imagerel $unwind$read_buf
pdata	ENDS
;	COMDAT pdata
pdata	SEGMENT
$pdata$deflateCopy DD imagerel $LN12@deflateCop
	DD	imagerel $LN12@deflateCop+53
	DD	imagerel $unwind$deflateCopy
pdata	ENDS
;	COMDAT pdata
pdata	SEGMENT
$pdata$0$deflateCopy DD imagerel $LN12@deflateCop+53
	DD	imagerel $LN12@deflateCop+142
	DD	imagerel $chain$0$deflateCopy
pdata	ENDS
;	COMDAT pdata
pdata	SEGMENT
$pdata$3$deflateCopy DD imagerel $LN12@deflateCop+142
	DD	imagerel $LN12@deflateCop+583
	DD	imagerel $chain$3$deflateCopy
pdata	ENDS
;	COMDAT pdata
pdata	SEGMENT
$pdata$5$deflateCopy DD imagerel $LN12@deflateCop+583
	DD	imagerel $LN12@deflateCop+598
	DD	imagerel $chain$5$deflateCopy
pdata	ENDS
;	COMDAT pdata
pdata	SEGMENT
$pdata$6$deflateCopy DD imagerel $LN12@deflateCop+598
	DD	imagerel $LN12@deflateCop+614
	DD	imagerel $chain$6$deflateCopy
pdata	ENDS
;	COMDAT pdata
pdata	SEGMENT
$pdata$flush_pending DD imagerel flush_pending
	DD	imagerel flush_pending+52
	DD	imagerel $unwind$flush_pending
pdata	ENDS
;	COMDAT pdata
pdata	SEGMENT
$pdata$0$flush_pending DD imagerel flush_pending+52
	DD	imagerel flush_pending+91
	DD	imagerel $chain$0$flush_pending
pdata	ENDS
;	COMDAT pdata
pdata	SEGMENT
$pdata$1$flush_pending DD imagerel flush_pending+91
	DD	imagerel flush_pending+115
	DD	imagerel $chain$1$flush_pending
pdata	ENDS
;	COMDAT pdata
pdata	SEGMENT
$pdata$deflateParams DD imagerel $LN16@deflatePar
	DD	imagerel $LN16@deflatePar+86
	DD	imagerel $unwind$deflateParams
pdata	ENDS
;	COMDAT pdata
pdata	SEGMENT
$pdata$0$deflateParams DD imagerel $LN16@deflatePar+86
	DD	imagerel $LN16@deflatePar+250
	DD	imagerel $chain$0$deflateParams
pdata	ENDS
;	COMDAT pdata
pdata	SEGMENT
$pdata$1$deflateParams DD imagerel $LN16@deflatePar+250
	DD	imagerel $LN16@deflatePar+277
	DD	imagerel $chain$1$deflateParams
pdata	ENDS
;	COMDAT pdata
pdata	SEGMENT
$pdata$deflatePrime DD imagerel $LN17@deflatePri
	DD	imagerel $LN17@deflatePri+191
	DD	imagerel $unwind$deflatePrime
pdata	ENDS
;	COMDAT pdata
pdata	SEGMENT
$pdata$deflateReset DD imagerel $LN6@deflateRes
	DD	imagerel $LN6@deflateRes+46
	DD	imagerel $unwind$deflateReset
pdata	ENDS
;	COMDAT pdata
pdata	SEGMENT
$pdata$deflateResetKeep DD imagerel $LN9@deflateRes
	DD	imagerel $LN9@deflateRes+60
	DD	imagerel $unwind$deflateResetKeep
pdata	ENDS
;	COMDAT pdata
pdata	SEGMENT
$pdata$0$deflateResetKeep DD imagerel $LN9@deflateRes+60
	DD	imagerel $LN9@deflateRes+179
	DD	imagerel $chain$0$deflateResetKeep
pdata	ENDS
;	COMDAT pdata
pdata	SEGMENT
$pdata$1$deflateResetKeep DD imagerel $LN9@deflateRes+179
	DD	imagerel $LN9@deflateRes+195
	DD	imagerel $chain$1$deflateResetKeep
pdata	ENDS
;	COMDAT pdata
pdata	SEGMENT
$pdata$deflateSetDictionary DD imagerel $LN26@deflateSet
	DD	imagerel $LN26@deflateSet+49
	DD	imagerel $unwind$deflateSetDictionary
pdata	ENDS
;	COMDAT pdata
pdata	SEGMENT
$pdata$3$deflateSetDictionary DD imagerel $LN26@deflateSet+49
	DD	imagerel $LN26@deflateSet+515
	DD	imagerel $chain$3$deflateSetDictionary
pdata	ENDS
;	COMDAT pdata
pdata	SEGMENT
$pdata$5$deflateSetDictionary DD imagerel $LN26@deflateSet+515
	DD	imagerel $LN26@deflateSet+534
	DD	imagerel $chain$5$deflateSetDictionary
pdata	ENDS
;	COMDAT pdata
pdata	SEGMENT
$pdata$6$deflateSetDictionary DD imagerel $LN26@deflateSet+534
	DD	imagerel $LN26@deflateSet+548
	DD	imagerel $chain$6$deflateSetDictionary
pdata	ENDS
;	COMDAT pdata
pdata	SEGMENT
$pdata$deflateInit2_ DD imagerel $LN23@deflateIni
	DD	imagerel $LN23@deflateIni+91
	DD	imagerel $unwind$deflateInit2_
pdata	ENDS
;	COMDAT pdata
pdata	SEGMENT
$pdata$1$deflateInit2_ DD imagerel $LN23@deflateIni+91
	DD	imagerel $LN23@deflateIni+257
	DD	imagerel $chain$1$deflateInit2_
pdata	ENDS
;	COMDAT pdata
pdata	SEGMENT
$pdata$2$deflateInit2_ DD imagerel $LN23@deflateIni+257
	DD	imagerel $LN23@deflateIni+562
	DD	imagerel $chain$2$deflateInit2_
pdata	ENDS
;	COMDAT pdata
pdata	SEGMENT
$pdata$3$deflateInit2_ DD imagerel $LN23@deflateIni+562
	DD	imagerel $LN23@deflateIni+584
	DD	imagerel $chain$3$deflateInit2_
pdata	ENDS
;	COMDAT pdata
pdata	SEGMENT
$pdata$5$deflateInit2_ DD imagerel $LN23@deflateIni+584
	DD	imagerel $LN23@deflateIni+617
	DD	imagerel $chain$5$deflateInit2_
pdata	ENDS
;	COMDAT pdata
pdata	SEGMENT
$pdata$6$deflateInit2_ DD imagerel $LN23@deflateIni+617
	DD	imagerel $LN23@deflateIni+624
	DD	imagerel $chain$6$deflateInit2_
pdata	ENDS
;	COMDAT pdata
pdata	SEGMENT
$pdata$7$deflateInit2_ DD imagerel $LN23@deflateIni+624
	DD	imagerel $LN23@deflateIni+641
	DD	imagerel $chain$7$deflateInit2_
pdata	ENDS
;	COMDAT pdata
pdata	SEGMENT
$pdata$deflateInit_ DD imagerel $LN4@deflateIni
	DD	imagerel $LN4@deflateIni+50
	DD	imagerel $unwind$deflateInit_
pdata	ENDS
;	COMDAT pdata
pdata	SEGMENT
$pdata$deflateEnd DD imagerel $LN14@deflateEnd
	DD	imagerel $LN14@deflateEnd+31
	DD	imagerel $unwind$deflateEnd
pdata	ENDS
;	COMDAT pdata
pdata	SEGMENT
$pdata$0$deflateEnd DD imagerel $LN14@deflateEnd+31
	DD	imagerel $LN14@deflateEnd+92
	DD	imagerel $chain$0$deflateEnd
pdata	ENDS
;	COMDAT pdata
pdata	SEGMENT
$pdata$2$deflateEnd DD imagerel $LN14@deflateEnd+92
	DD	imagerel $LN14@deflateEnd+207
	DD	imagerel $chain$2$deflateEnd
pdata	ENDS
;	COMDAT pdata
pdata	SEGMENT
$pdata$3$deflateEnd DD imagerel $LN14@deflateEnd+207
	DD	imagerel $LN14@deflateEnd+218
	DD	imagerel $chain$3$deflateEnd
pdata	ENDS
;	COMDAT pdata
pdata	SEGMENT
$pdata$deflate DD imagerel $LN122@deflate
	DD	imagerel $LN122@deflate+123
	DD	imagerel $unwind$deflate
pdata	ENDS
;	COMDAT pdata
pdata	SEGMENT
$pdata$1$deflate DD imagerel $LN122@deflate+123
	DD	imagerel $LN122@deflate+1073
	DD	imagerel $chain$1$deflate
pdata	ENDS
;	COMDAT pdata
pdata	SEGMENT
$pdata$2$deflate DD imagerel $LN122@deflate+1073
	DD	imagerel $LN122@deflate+1465
	DD	imagerel $chain$2$deflate
pdata	ENDS
;	COMDAT pdata
pdata	SEGMENT
$pdata$3$deflate DD imagerel $LN122@deflate+1465
	DD	imagerel $LN122@deflate+1605
	DD	imagerel $chain$3$deflate
pdata	ENDS
;	COMDAT pdata
pdata	SEGMENT
$pdata$5$deflate DD imagerel $LN122@deflate+1605
	DD	imagerel $LN122@deflate+2177
	DD	imagerel $chain$5$deflate
pdata	ENDS
;	COMDAT pdata
pdata	SEGMENT
$pdata$6$deflate DD imagerel $LN122@deflate+2177
	DD	imagerel $LN122@deflate+2202
	DD	imagerel $chain$6$deflate
;	COMDAT xdata
xdata	SEGMENT
$chain$6$deflate DD 021H
	DD	imagerel $LN122@deflate
	DD	imagerel $LN122@deflate+123
	DD	imagerel $unwind$deflate
xdata	ENDS
;	COMDAT xdata
xdata	SEGMENT
$chain$5$deflate DQ 0000af40000040021r		; 1.52322e-308
	DD	085400H
	DD	imagerel $LN122@deflate
	DD	imagerel $LN122@deflate+123
	DD	imagerel $unwind$deflate
xdata	ENDS
;	COMDAT xdata
xdata	SEGMENT
$chain$3$deflate DD 021H
	DD	imagerel $LN122@deflate+123
	DD	imagerel $LN122@deflate+1073
	DD	imagerel $chain$1$deflate
xdata	ENDS
;	COMDAT xdata
xdata	SEGMENT
$chain$2$deflate DQ 00009640500020521r		; 1.30594e-308
	DD	imagerel $LN122@deflate+123
	DD	imagerel $LN122@deflate+1073
	DD	imagerel $chain$1$deflate
xdata	ENDS
;	COMDAT xdata
xdata	SEGMENT
$chain$1$deflate DQ 0000af40c00040c21r		; 1.52324e-308
	DD	085405H
	DD	imagerel $LN122@deflate
	DD	imagerel $LN122@deflate+123
	DD	imagerel $unwind$deflate
xdata	ENDS
;	COMDAT xdata
xdata	SEGMENT
$unwind$deflate DQ 0e005320900040901r		; -3.55231e+154
	DD	030027003H
xdata	ENDS
;	COMDAT xdata
xdata	SEGMENT
$chain$3$deflateEnd DD 021H
	DD	imagerel $LN14@deflateEnd
	DD	imagerel $LN14@deflateEnd+31
	DD	imagerel $unwind$deflateEnd
xdata	ENDS
;	COMDAT xdata
xdata	SEGMENT
$chain$2$deflateEnd DQ 00006740000020021r	; 8.97417e-309
	DD	imagerel $LN14@deflateEnd
	DD	imagerel $LN14@deflateEnd+31
	DD	imagerel $unwind$deflateEnd
xdata	ENDS
;	COMDAT xdata
xdata	SEGMENT
$chain$0$deflateEnd DQ 00006740500020521r	; 8.97428e-309
	DD	imagerel $LN14@deflateEnd
	DD	imagerel $LN14@deflateEnd+31
	DD	imagerel $unwind$deflateEnd
xdata	ENDS
;	COMDAT xdata
xdata	SEGMENT
$unwind$deflateEnd DQ 03002320600020601r	; 1.96423e-77
xdata	ENDS
;	COMDAT xdata
xdata	SEGMENT
$unwind$deflateInit_ DQ 00000820400010401r	; 7.06285e-310
xdata	ENDS
;	COMDAT xdata
xdata	SEGMENT
$chain$7$deflateInit2_ DD 021H
	DD	imagerel $LN23@deflateIni
	DD	imagerel $LN23@deflateIni+91
	DD	imagerel $unwind$deflateInit2_
xdata	ENDS
;	COMDAT xdata
xdata	SEGMENT
$chain$6$deflateInit2_ DQ 0000cd40000040021r	; 1.78397e-308
	DD	0bc400H
	DD	imagerel $LN23@deflateIni
	DD	imagerel $LN23@deflateIni+91
	DD	imagerel $unwind$deflateInit2_
xdata	ENDS
;	COMDAT xdata
xdata	SEGMENT
$chain$5$deflateInit2_ DQ 0000cd40000060021r	; 1.78397e-308
	DQ	0000a6400000bc400r		; 1.44499e-308
	DD	imagerel $LN23@deflateIni
	DD	imagerel $LN23@deflateIni+91
	DD	imagerel $unwind$deflateInit2_
xdata	ENDS
;	COMDAT xdata
xdata	SEGMENT
$chain$3$deflateInit2_ DD 021H
	DD	imagerel $LN23@deflateIni+91
	DD	imagerel $LN23@deflateIni+257
	DD	imagerel $chain$1$deflateInit2_
xdata	ENDS
;	COMDAT xdata
xdata	SEGMENT
$chain$2$deflateInit2_ DQ 0000a640500020521r	; 1.445e-308
	DD	imagerel $LN23@deflateIni+91
	DD	imagerel $LN23@deflateIni+257
	DD	imagerel $chain$1$deflateInit2_
xdata	ENDS
;	COMDAT xdata
xdata	SEGMENT
$chain$1$deflateInit2_ DQ 0000bc45f00045f21r	; 1.63641e-308
	DD	0cd405H
	DD	imagerel $LN23@deflateIni
	DD	imagerel $LN23@deflateIni+91
	DD	imagerel $unwind$deflateInit2_
xdata	ENDS
;	COMDAT xdata
xdata	SEGMENT
$unwind$deflateInit2_ DQ 0f008320c00060c01r	; -4.69549e+231
	DQ	0300250037004e006r		; 1.97688e-77
xdata	ENDS
;	COMDAT xdata
xdata	SEGMENT
$chain$6$deflateSetDictionary DD 021H
	DD	imagerel $LN26@deflateSet
	DD	imagerel $LN26@deflateSet+49
	DD	imagerel $unwind$deflateSetDictionary
xdata	ENDS
;	COMDAT xdata
xdata	SEGMENT
$chain$5$deflateSetDictionary DQ 0000ce40000020021r ; 1.79266e-308
	DD	imagerel $LN26@deflateSet
	DD	imagerel $LN26@deflateSet+49
	DD	imagerel $unwind$deflateSetDictionary
xdata	ENDS
;	COMDAT xdata
xdata	SEGMENT
$chain$3$deflateSetDictionary DQ 00004f43f00083f21r ; 6.8895e-309
	DQ	0000ac435000bd43ar		; 1.49726e-308
	DD	0ce405H
	DD	imagerel $LN26@deflateSet
	DD	imagerel $LN26@deflateSet+49
	DD	imagerel $unwind$deflateSetDictionary
xdata	ENDS
;	COMDAT xdata
xdata	SEGMENT
$unwind$deflateSetDictionary DQ 07005420900050901r ; 4.12542e+231
	DQ	00000300250036004r		; 2.608e-310
xdata	ENDS
;	COMDAT xdata
xdata	SEGMENT
$chain$1$deflateResetKeep DD 021H
	DD	imagerel $LN9@deflateRes
	DD	imagerel $LN9@deflateRes+60
	DD	imagerel $unwind$deflateResetKeep
xdata	ENDS
;	COMDAT xdata
xdata	SEGMENT
$chain$0$deflateResetKeep DQ 00006640500020521r	; 8.88736e-309
	DD	imagerel $LN9@deflateRes
	DD	imagerel $LN9@deflateRes+60
	DD	imagerel $unwind$deflateResetKeep
xdata	ENDS
;	COMDAT xdata
xdata	SEGMENT
$unwind$deflateResetKeep DQ 00007340a00040a01r	; 1.00174e-308
	DD	07006320aH
xdata	ENDS
;	COMDAT xdata
xdata	SEGMENT
$unwind$deflateReset DQ 00006340a00040a01r	; 8.62672e-309
	DD	07006320aH
xdata	ENDS
;	COMDAT xdata
xdata	SEGMENT
$unwind$deflatePrime DQ 00006340a00040a01r	; 8.62672e-309
	DD	07006320aH
xdata	ENDS
;	COMDAT xdata
xdata	SEGMENT
$chain$1$deflateParams DD 021H
	DD	imagerel $LN16@deflatePar
	DD	imagerel $LN16@deflatePar+86
	DD	imagerel $unwind$deflateParams
xdata	ENDS
;	COMDAT xdata
xdata	SEGMENT
$chain$0$deflateParams DQ 00006540500020521r	; 8.80045e-309
	DD	imagerel $LN16@deflatePar
	DD	imagerel $LN16@deflatePar+86
	DD	imagerel $unwind$deflateParams
xdata	ENDS
;	COMDAT xdata
xdata	SEGMENT
$unwind$deflateParams DQ 00009741500081501r	; 1.31466e-308
	DQ	00007341500086415r		; 1.00176e-308
	DD	0e0113215H
xdata	ENDS
;	COMDAT xdata
xdata	SEGMENT
$chain$1$flush_pending DD 021H
	DD	imagerel flush_pending
	DD	imagerel flush_pending+52
	DD	imagerel $unwind$flush_pending
xdata	ENDS
;	COMDAT xdata
xdata	SEGMENT
$chain$0$flush_pending DQ 00006340500020521r	; 8.62661e-309
	DD	imagerel flush_pending
	DD	imagerel flush_pending+52
	DD	imagerel $unwind$flush_pending
xdata	ENDS
;	COMDAT xdata
xdata	SEGMENT
$unwind$flush_pending DQ 00008640f00060f01r	; 1.16689e-308
	DQ	0700b320f0007540fr		; 5.2777e+231
xdata	ENDS
;	COMDAT xdata
xdata	SEGMENT
$chain$6$deflateCopy DD 021H
	DD	imagerel $LN12@deflateCop
	DD	imagerel $LN12@deflateCop+53
	DD	imagerel $unwind$deflateCopy
xdata	ENDS
;	COMDAT xdata
xdata	SEGMENT
$chain$5$deflateCopy DQ 00007e40000040021r	; 1.09733e-308
	DD	067400H
	DD	imagerel $LN12@deflateCop
	DD	imagerel $LN12@deflateCop+53
	DD	imagerel $unwind$deflateCopy
xdata	ENDS
;	COMDAT xdata
xdata	SEGMENT
$chain$3$deflateCopy DQ 00007e40f00040f21r	; 1.09736e-308
	DD	067400H
	DD	imagerel $LN12@deflateCop
	DD	imagerel $LN12@deflateCop+53
	DD	imagerel $unwind$deflateCopy
xdata	ENDS
;	COMDAT xdata
xdata	SEGMENT
$chain$0$deflateCopy DQ 00006740500020521r	; 8.97428e-309
	DD	imagerel $LN12@deflateCop
	DD	imagerel $LN12@deflateCop+53
	DD	imagerel $unwind$deflateCopy
xdata	ENDS
;	COMDAT xdata
xdata	SEGMENT
$unwind$deflateCopy DQ 00008340a00040a01r	; 1.14081e-308
	DD	06006320aH
xdata	ENDS
;	COMDAT xdata
xdata	SEGMENT
$unwind$read_buf DQ 00006544700084701r		; 8.80185e-309
	DQ	00007340f0008640fr		; 1.00175e-308
	DD	0700b320fH
xdata	ENDS
;	COMDAT xdata
xdata	SEGMENT
$unwind$lm_init DQ 00006340a00040a01r		; 8.62672e-309
	DD	07006320aH
xdata	ENDS
;	COMDAT xdata
xdata	SEGMENT
$chain$1$fill_window DD 021H
	DD	imagerel fill_window
	DD	imagerel fill_window+21
	DD	imagerel $unwind$fill_window
xdata	ENDS
;	COMDAT xdata
xdata	SEGMENT
$chain$0$fill_window DQ 00006540500020521r	; 8.80045e-309
	DD	imagerel fill_window
	DD	imagerel fill_window+21
	DD	imagerel $unwind$fill_window
xdata	ENDS
;	COMDAT xdata
xdata	SEGMENT
$unwind$fill_window DQ 00008640f00060f01r	; 1.16689e-308
	DQ	0700b320f0007340fr		; 5.2777e+231
xdata	ENDS
;	COMDAT xdata
xdata	SEGMENT
$unwind$deflate_stored DQ 00008641400081401r	; 1.1669e-308
	DQ	00006341400075414r		; 8.62693e-309
	DD	070103214H
xdata	ENDS
;	COMDAT xdata
xdata	SEGMENT
$unwind$deflate_fast DQ 0000a6418000a1801r	; 1.44505e-308
	DQ	00008341800095418r		; 1.14084e-308
	DQ	07010e012f0143218r		; 6.5498e+231
xdata	ENDS
;	COMDAT xdata
xdata	SEGMENT
$unwind$deflate_slow DQ 0000a641e000c1e01r	; 1.44506e-308
	DQ	0000b3417000c5417r		; 1.55804e-308
	DQ	0d00fe011f0133217r		; -4.61363e+77
	DD	0700bc00dH
xdata	ENDS
;	COMDAT xdata
xdata	SEGMENT
$unwind$deflate_rle DQ 00009741a000a1a01r	; 1.31467e-308
	DQ	00007541a0008641ar		; 1.01916e-308
	DQ	0e016321a0006341ar		; -7.4399e+154
xdata	ENDS
;	COMDAT xdata
xdata	SEGMENT
$unwind$deflate_huff DQ 00007640f00060f01r	; 1.02782e-308
	DQ	0700b320f0006340fr		; 5.2777e+231
END
