; Listing generated by Microsoft (R) Optimizing Compiler Version 19.00.23506.0 

include listing.inc

INCLUDELIB OLDNAMES

PUBLIC	??_C@_0BH@CFIIDOJD@unexpected?5end?5of?5file?$AA@ ; `string'
PUBLIC	??_C@_0CH@CPOLIEKA@internal?5error?3?5inflate?5stream?5c@ ; `string'
PUBLIC	??_C@_0BG@HCKBMIHF@compressed?5data?5error?$AA@	; `string'
PUBLIC	??_C@_0CF@MLPJFDMM@requested?5length?5does?5not?5fit?5in@ ; `string'
PUBLIC	??_C@_0BP@IIKIGMCC@out?5of?5room?5to?5push?5characters?$AA@ ; `string'
EXTRN	__imp_strerror:PROC
EXTRN	__imp_memchr:PROC
EXTRN	__imp__errno:PROC
EXTRN	__imp__close:PROC
EXTRN	__imp__read:PROC
;	COMDAT ??_C@_0BP@IIKIGMCC@out?5of?5room?5to?5push?5characters?$AA@
CONST	SEGMENT
??_C@_0BP@IIKIGMCC@out?5of?5room?5to?5push?5characters?$AA@ DB 'out of ro'
	DB	'om to push characters', 00H			; `string'
CONST	ENDS
;	COMDAT ??_C@_0CF@MLPJFDMM@requested?5length?5does?5not?5fit?5in@
CONST	SEGMENT
??_C@_0CF@MLPJFDMM@requested?5length?5does?5not?5fit?5in@ DB 'requested l'
	DB	'ength does not fit in int', 00H		; `string'
CONST	ENDS
;	COMDAT ??_C@_0BG@HCKBMIHF@compressed?5data?5error?$AA@
CONST	SEGMENT
??_C@_0BG@HCKBMIHF@compressed?5data?5error?$AA@ DB 'compressed data error'
	DB	00H						; `string'
CONST	ENDS
;	COMDAT ??_C@_0CH@CPOLIEKA@internal?5error?3?5inflate?5stream?5c@
CONST	SEGMENT
??_C@_0CH@CPOLIEKA@internal?5error?3?5inflate?5stream?5c@ DB 'internal er'
	DB	'ror: inflate stream corrupt', 00H		; `string'
CONST	ENDS
;	COMDAT ??_C@_0BH@CFIIDOJD@unexpected?5end?5of?5file?$AA@
CONST	SEGMENT
??_C@_0BH@CFIIDOJD@unexpected?5end?5of?5file?$AA@ DB 'unexpected end of f'
	DB	'ile', 00H					; `string'
PUBLIC	gzdirect
PUBLIC	gzgets
PUBLIC	gzungetc
PUBLIC	gzgetc_
PUBLIC	gzgetc
PUBLIC	gzread
PUBLIC	gzclose_r
;	COMDAT pdata
pdata	SEGMENT
$pdata$gzdirect DD imagerel $LN6@gzdirect
	DD	imagerel $LN6@gzdirect+56
	DD	imagerel $unwind$gzdirect
pdata	ENDS
;	COMDAT pdata
pdata	SEGMENT
$pdata$gzgets DD imagerel $LN32@gzgets
	DD	imagerel $LN32@gzgets+107
	DD	imagerel $unwind$gzgets
pdata	ENDS
;	COMDAT pdata
pdata	SEGMENT
$pdata$3$gzgets DD imagerel $LN32@gzgets+107
	DD	imagerel $LN32@gzgets+304
	DD	imagerel $chain$3$gzgets
pdata	ENDS
;	COMDAT pdata
pdata	SEGMENT
$pdata$5$gzgets DD imagerel $LN32@gzgets+304
	DD	imagerel $LN32@gzgets+308
	DD	imagerel $chain$5$gzgets
pdata	ENDS
;	COMDAT pdata
pdata	SEGMENT
$pdata$6$gzgets DD imagerel $LN32@gzgets+308
	DD	imagerel $LN32@gzgets+320
	DD	imagerel $chain$6$gzgets
pdata	ENDS
;	COMDAT pdata
pdata	SEGMENT
$pdata$gzungetc DD imagerel $LN19@gzungetc
	DD	imagerel $LN19@gzungetc+267
	DD	imagerel $unwind$gzungetc
pdata	ENDS
;	COMDAT pdata
pdata	SEGMENT
$pdata$gzgetc DD imagerel $LN10@gzgetc
	DD	imagerel $LN10@gzgetc+107
	DD	imagerel $unwind$gzgetc
pdata	ENDS
;	COMDAT pdata
pdata	SEGMENT
$pdata$gzread DD imagerel $LN41@gzread
	DD	imagerel $LN41@gzread+91
	DD	imagerel $unwind$gzread
pdata	ENDS
;	COMDAT pdata
pdata	SEGMENT
$pdata$0$gzread DD imagerel $LN41@gzread+91
	DD	imagerel $LN41@gzread+139
	DD	imagerel $chain$0$gzread
pdata	ENDS
;	COMDAT pdata
pdata	SEGMENT
$pdata$5$gzread DD imagerel $LN41@gzread+139
	DD	imagerel $LN41@gzread+419
	DD	imagerel $chain$5$gzread
pdata	ENDS
;	COMDAT pdata
pdata	SEGMENT
$pdata$gz_skip DD imagerel gz_skip
	DD	imagerel gz_skip+119
	DD	imagerel $unwind$gz_skip
pdata	ENDS
;	COMDAT pdata
pdata	SEGMENT
$pdata$gz_fetch DD imagerel gz_fetch
	DD	imagerel gz_fetch+167
	DD	imagerel $unwind$gz_fetch
pdata	ENDS
;	COMDAT pdata
pdata	SEGMENT
$pdata$gz_decomp DD imagerel gz_decomp
	DD	imagerel gz_decomp+270
	DD	imagerel $unwind$gz_decomp
pdata	ENDS
;	COMDAT pdata
pdata	SEGMENT
$pdata$gz_look DD imagerel gz_look
	DD	imagerel gz_look+482
	DD	imagerel $unwind$gz_look
pdata	ENDS
;	COMDAT pdata
pdata	SEGMENT
$pdata$gz_avail DD imagerel gz_avail
	DD	imagerel gz_avail+144
	DD	imagerel $unwind$gz_avail
pdata	ENDS
;	COMDAT pdata
pdata	SEGMENT
$pdata$gz_load DD imagerel gz_load
	DD	imagerel gz_load+149
	DD	imagerel $unwind$gz_load
pdata	ENDS
;	COMDAT pdata
pdata	SEGMENT
$pdata$gzclose_r DD imagerel $LN8@gzclose_r
	DD	imagerel $LN8@gzclose_r+161
	DD	imagerel $unwind$gzclose_r
;	COMDAT xdata
xdata	SEGMENT
$unwind$gzclose_r DQ 00007743000063001r		; 1.03659e-308
	DQ	0600232060006342br		; 3.04951e+154
xdata	ENDS
;	COMDAT xdata
xdata	SEGMENT
$unwind$gz_load DQ 00008641400081401r		; 1.1669e-308
	DQ	00006341400075414r		; 8.62693e-309
	DD	070103214H
xdata	ENDS
;	COMDAT xdata
xdata	SEGMENT
$unwind$gz_avail DQ 03002320600020601r		; 1.96423e-77
xdata	ENDS
;	COMDAT xdata
xdata	SEGMENT
$unwind$gz_look DQ 00007640f00060f01r		; 1.02782e-308
	DQ	0700b320f0006340fr		; 5.2777e+231
xdata	ENDS
;	COMDAT xdata
xdata	SEGMENT
$unwind$gz_decomp DQ 00008641400081401r		; 1.1669e-308
	DQ	00006341400075414r		; 8.62693e-309
	DD	070103214H
xdata	ENDS
;	COMDAT xdata
xdata	SEGMENT
$unwind$gz_fetch DQ 03002320600020601r		; 1.96423e-77
xdata	ENDS
;	COMDAT xdata
xdata	SEGMENT
$unwind$gz_skip DQ 00006340a00040a01r		; 8.62672e-309
	DD	07006320aH
xdata	ENDS
;	COMDAT xdata
xdata	SEGMENT
$chain$5$gzread DQ 0000c741200081221r		; 1.73186e-308
	DQ	0000b64050004f40ar		; 1.58407e-308
	DD	05c400H
	DD	imagerel $LN41@gzread
	DD	imagerel $LN41@gzread+91
	DD	imagerel $unwind$gzread
xdata	ENDS
;	COMDAT xdata
xdata	SEGMENT
$chain$0$gzread DQ 00005c40500020521r		; 8.01819e-309
	DD	imagerel $LN41@gzread
	DD	imagerel $LN41@gzread+91
	DD	imagerel $unwind$gzread
xdata	ENDS
;	COMDAT xdata
xdata	SEGMENT
$unwind$gzread DQ 0e005520900040901r		; -3.57326e+154
	DD	030025003H
xdata	ENDS
;	COMDAT xdata
xdata	SEGMENT
$unwind$gzgetc DQ 00000420400010401r		; 3.58617e-310
xdata	ENDS
;	COMDAT xdata
xdata	SEGMENT
$unwind$gzungetc DQ 00006340a00040a01r		; 8.62672e-309
	DD	07006320aH
xdata	ENDS
;	COMDAT xdata
xdata	SEGMENT
$chain$6$gzgets DD 021H
	DD	imagerel $LN32@gzgets
	DD	imagerel $LN32@gzgets+107
	DD	imagerel $unwind$gzgets
xdata	ENDS
;	COMDAT xdata
xdata	SEGMENT
$chain$5$gzgets DQ 0000bc40000080021r		; 1.63621e-308
	DQ	000095400000a7400r		; 1.29724e-308
	DD	083400H
	DD	imagerel $LN32@gzgets
	DD	imagerel $LN32@gzgets+107
	DD	imagerel $unwind$gzgets
xdata	ENDS
;	COMDAT xdata
xdata	SEGMENT
$chain$3$gzgets DQ 0000bc41400081421r		; 1.63625e-308
	DQ	00009540a000a740fr		; 1.29726e-308
	DD	083405H
	DD	imagerel $LN32@gzgets
	DD	imagerel $LN32@gzgets+107
	DD	imagerel $unwind$gzgets
xdata	ENDS
;	COMDAT xdata
xdata	SEGMENT
$unwind$gzgets DQ 0f006320a00040a01r		; -4.30736e+231
	DD	06002e004H
xdata	ENDS
;	COMDAT xdata
xdata	SEGMENT
$unwind$gzdirect DQ 03002320600020601r		; 1.96423e-77
END
