; Listing generated by Microsoft (R) Optimizing Compiler Version 19.00.23506.0 

include listing.inc

INCLUDELIB OLDNAMES

PUBLIC	??_C@_0CH@DEEGAHIB@internal?5error?3?5deflate?5stream?5c@ ; `string'
EXTRN	__imp__write:PROC
;	COMDAT ??_C@_0CH@DEEGAHIB@internal?5error?3?5deflate?5stream?5c@
CONST	SEGMENT
??_C@_0CH@DEEGAHIB@internal?5error?3?5deflate?5stream?5c@ DB 'internal er'
	DB	'ror: deflate stream corrupt', 00H		; `string'
PUBLIC	gzsetparams
PUBLIC	gzflush
PUBLIC	gzprintf
PUBLIC	gzvprintf
PUBLIC	gzputs
PUBLIC	gzputc
PUBLIC	gzwrite
PUBLIC	vsnprintf
PUBLIC	gzclose_w
;	COMDAT pdata
pdata	SEGMENT
$pdata$gzsetparams DD imagerel $LN14@gzsetparam
	DD	imagerel $LN14@gzsetparam+197
	DD	imagerel $unwind$gzsetparams
pdata	ENDS
;	COMDAT pdata
pdata	SEGMENT
$pdata$gzflush DD imagerel $LN12@gzflush
	DD	imagerel $LN12@gzflush+121
	DD	imagerel $unwind$gzflush
pdata	ENDS
;	COMDAT pdata
pdata	SEGMENT
$pdata$gzprintf DD imagerel $LN4@gzprintf
	DD	imagerel $LN4@gzprintf+34
	DD	imagerel $unwind$gzprintf
pdata	ENDS
;	COMDAT pdata
pdata	SEGMENT
$pdata$gzvprintf DD imagerel $LN18@gzvprintf
	DD	imagerel $LN18@gzvprintf+294
	DD	imagerel $unwind$gzvprintf
pdata	ENDS
;	COMDAT pdata
pdata	SEGMENT
$pdata$gzputs DD imagerel $LN7@gzputs
	DD	imagerel $LN7@gzputs+50
	DD	imagerel $unwind$gzputs
pdata	ENDS
;	COMDAT pdata
pdata	SEGMENT
$pdata$gzputc DD imagerel $LN14@gzputc
	DD	imagerel $LN14@gzputc+189
	DD	imagerel $unwind$gzputc
pdata	ENDS
;	COMDAT pdata
pdata	SEGMENT
$pdata$gzwrite DD imagerel $LN31@gzwrite
	DD	imagerel $LN31@gzwrite+322
	DD	imagerel $unwind$gzwrite
pdata	ENDS
;	COMDAT pdata
pdata	SEGMENT
$pdata$gz_zero DD imagerel gz_zero
	DD	imagerel gz_zero+50
	DD	imagerel $unwind$gz_zero
pdata	ENDS
;	COMDAT pdata
pdata	SEGMENT
$pdata$1$gz_zero DD imagerel gz_zero+50
	DD	imagerel gz_zero+172
	DD	imagerel $chain$1$gz_zero
pdata	ENDS
;	COMDAT pdata
pdata	SEGMENT
$pdata$3$gz_zero DD imagerel gz_zero+172
	DD	imagerel gz_zero+177
	DD	imagerel $chain$3$gz_zero
pdata	ENDS
;	COMDAT pdata
pdata	SEGMENT
$pdata$gz_comp DD imagerel gz_comp
	DD	imagerel gz_comp+372
	DD	imagerel $unwind$gz_comp
pdata	ENDS
;	COMDAT pdata
pdata	SEGMENT
$pdata$gz_init DD imagerel gz_init
	DD	imagerel gz_init+247
	DD	imagerel $unwind$gz_init
pdata	ENDS
;	COMDAT pdata
pdata	SEGMENT
$pdata$vsnprintf DD imagerel $LN4@vsnprintf
	DD	imagerel $LN4@vsnprintf+102
	DD	imagerel $unwind$vsnprintf
pdata	ENDS
;	COMDAT pdata
pdata	SEGMENT
$pdata$gzclose_w DD imagerel $LN13@gzclose_w
	DD	imagerel $LN13@gzclose_w+194
	DD	imagerel $unwind$gzclose_w
;	COMDAT xdata
xdata	SEGMENT
$unwind$gzclose_w DQ 00006340a00040a01r		; 8.62672e-309
	DD	07006320aH
xdata	ENDS
;	COMDAT xdata
xdata	SEGMENT
$unwind$vsnprintf DQ 0000a641400081401r		; 1.44504e-308
	DQ	00008341400095414r		; 1.14083e-308
	DD	070105214H
xdata	ENDS
;	COMDAT xdata
xdata	SEGMENT
$unwind$gz_init DQ 0000a340a00040a01r		; 1.41894e-308
	DD	07006720aH
xdata	ENDS
;	COMDAT xdata
xdata	SEGMENT
$unwind$gz_comp DQ 00006649800089801r		; 8.89048e-309
	DQ	00007340f0008540fr		; 1.00175e-308
	DD	0700b320fH
xdata	ENDS
;	COMDAT xdata
xdata	SEGMENT
$chain$3$gz_zero DQ 00007640000040021r		; 1.02779e-308
	DD	065400H
	DD	imagerel gz_zero
	DD	imagerel gz_zero+50
	DD	imagerel $unwind$gz_zero
xdata	ENDS
;	COMDAT xdata
xdata	SEGMENT
$chain$1$gz_zero DQ 00007640f00040f21r		; 1.02782e-308
	DD	065405H
	DD	imagerel gz_zero
	DD	imagerel gz_zero+50
	DD	imagerel $unwind$gz_zero
xdata	ENDS
;	COMDAT xdata
xdata	SEGMENT
$unwind$gz_zero DQ 00008340a00040a01r		; 1.14081e-308
	DD	07006320aH
xdata	ENDS
;	COMDAT xdata
xdata	SEGMENT
$unwind$gzwrite DQ 000097491000a9101r		; 1.31493e-308
	DQ	0000a340e0008648cr		; 1.41895e-308
	DQ	05006e008f00a320er		; 3.31095e+77
xdata	ENDS
;	COMDAT xdata
xdata	SEGMENT
$unwind$gzputc DQ 00007340a00040a01r		; 1.00174e-308
	DD	07006320aH
xdata	ENDS
;	COMDAT xdata
xdata	SEGMENT
$unwind$gzputs DQ 03002320600020601r		; 1.96423e-77
xdata	ENDS
;	COMDAT xdata
xdata	SEGMENT
$unwind$gzvprintf DQ 0000974ac000aac01r		; 1.31498e-308
	DQ	0000b5410000864a3r		; 1.5754e-308
	DQ	0e00c5210000a3410r		; -4.74646e+154
xdata	ENDS
;	COMDAT xdata
xdata	SEGMENT
$unwind$gzprintf DQ 00000421300011301r		; 3.58936e-310
xdata	ENDS
;	COMDAT xdata
xdata	SEGMENT
$unwind$gzflush DQ 00006340a00040a01r		; 8.62672e-309
	DD	07006320aH
xdata	ENDS
;	COMDAT xdata
xdata	SEGMENT
$unwind$gzsetparams DQ 00006543b00083b01r	; 8.80159e-309
	DQ	00007340f0008640fr		; 1.00175e-308
	DD	0700b320fH
END
