; Listing generated by Microsoft (R) Optimizing Compiler Version 19.00.23506.0 

include listing.inc

INCLUDELIB OLDNAMES

PUBLIC	uncompress
;	COMDAT pdata
pdata	SEGMENT
$pdata$uncompress DD imagerel $LN11@uncompress
	DD	imagerel $LN11@uncompress+73
	DD	imagerel $unwind$uncompress
pdata	ENDS
;	COMDAT pdata
pdata	SEGMENT
$pdata$0$uncompress DD imagerel $LN11@uncompress+73
	DD	imagerel $LN11@uncompress+144
	DD	imagerel $chain$0$uncompress
pdata	ENDS
;	COMDAT pdata
pdata	SEGMENT
$pdata$2$uncompress DD imagerel $LN11@uncompress+144
	DD	imagerel $LN11@uncompress+166
	DD	imagerel $chain$2$uncompress
pdata	ENDS
;	COMDAT pdata
pdata	SEGMENT
$pdata$4$uncompress DD imagerel $LN11@uncompress+166
	DD	imagerel $LN11@uncompress+185
	DD	imagerel $chain$4$uncompress
pdata	ENDS
;	COMDAT pdata
pdata	SEGMENT
$pdata$5$uncompress DD imagerel $LN11@uncompress+185
	DD	imagerel $LN11@uncompress+194
	DD	imagerel $chain$5$uncompress
;	COMDAT xdata
xdata	SEGMENT
$chain$5$uncompress DD 021H
	DD	imagerel $LN11@uncompress
	DD	imagerel $LN11@uncompress+73
	DD	imagerel $unwind$uncompress
xdata	ENDS
;	COMDAT xdata
xdata	SEGMENT
$chain$4$uncompress DQ 00012340000020021r	; 2.53146e-308
	DD	imagerel $LN11@uncompress
	DD	imagerel $LN11@uncompress+73
	DD	imagerel $unwind$uncompress
xdata	ENDS
;	COMDAT xdata
xdata	SEGMENT
$chain$2$uncompress DQ 00012340000020021r	; 2.53146e-308
	DD	imagerel $LN11@uncompress
	DD	imagerel $LN11@uncompress+73
	DD	imagerel $unwind$uncompress
xdata	ENDS
;	COMDAT xdata
xdata	SEGMENT
$chain$0$uncompress DQ 00012340800020821r	; 2.53147e-308
	DD	imagerel $LN11@uncompress
	DD	imagerel $LN11@uncompress+73
	DD	imagerel $unwind$uncompress
xdata	ENDS
;	COMDAT xdata
xdata	SEGMENT
$unwind$uncompress DQ 07002f20900020901r	; 3.67664e+231
END
